target datalayout = "e-m:e-p270:32:32-p271:32:32-p272:64:64-i64:64-i128:128-f80:128-n8:16:32:64-S128"
target triple = "x86_64-pc-linux-gnu"

; Function Attrs: nounwind uwtable
define i32 @ff_ac3_find_syncword(ptr noundef %0, i32 noundef %1) #0 {
  %3 = alloca i32, align 4
  %4 = alloca ptr, align 8
  %5 = alloca i32, align 4
  %6 = alloca i32, align 4
  %7 = alloca i32, align 4
  store ptr %0, ptr %4, align 8, !tbaa !4
  store i32 %1, ptr %5, align 4, !tbaa !9
  call void @llvm.lifetime.start.p0(i64 4, ptr %6) #9
  store i32 1, ptr %6, align 4, !tbaa !9
  br label %8

8:                                                ; preds = %67, %2
  %9 = load i32, ptr %6, align 4, !tbaa !9
  %10 = load i32, ptr %5, align 4, !tbaa !9
  %11 = icmp slt i32 %9, %10
  br i1 %11, label %12, label %70

12:                                               ; preds = %8
  %13 = load ptr, ptr %4, align 8, !tbaa !4
  %14 = load i32, ptr %6, align 4, !tbaa !9
  %15 = sext i32 %14 to i64
  %16 = getelementptr inbounds i8, ptr %13, i64 %15
  %17 = load i8, ptr %16, align 1, !tbaa !11
  %18 = zext i8 %17 to i32
  %19 = icmp eq i32 %18, 119
  br i1 %19, label %28, label %20

20:                                               ; preds = %12
  %21 = load ptr, ptr %4, align 8, !tbaa !4
  %22 = load i32, ptr %6, align 4, !tbaa !9
  %23 = sext i32 %22 to i64
  %24 = getelementptr inbounds i8, ptr %21, i64 %23
  %25 = load i8, ptr %24, align 1, !tbaa !11
  %26 = zext i8 %25 to i32
  %27 = icmp eq i32 %26, 11
  br i1 %27, label %28, label %66

28:                                               ; preds = %20, %12
  %29 = load ptr, ptr %4, align 8, !tbaa !4
  %30 = load i32, ptr %6, align 4, !tbaa !9
  %31 = sext i32 %30 to i64
  %32 = getelementptr inbounds i8, ptr %29, i64 %31
  %33 = load i8, ptr %32, align 1, !tbaa !11
  %34 = zext i8 %33 to i32
  %35 = load ptr, ptr %4, align 8, !tbaa !4
  %36 = load i32, ptr %6, align 4, !tbaa !9
  %37 = sub nsw i32 %36, 1
  %38 = sext i32 %37 to i64
  %39 = getelementptr inbounds i8, ptr %35, i64 %38
  %40 = load i8, ptr %39, align 1, !tbaa !11
  %41 = zext i8 %40 to i32
  %42 = xor i32 %34, %41
  %43 = icmp eq i32 %42, 124
  br i1 %43, label %44, label %47

44:                                               ; preds = %28
  %45 = load i32, ptr %6, align 4, !tbaa !9
  %46 = add nsw i32 %45, -1
  store i32 %46, ptr %6, align 4, !tbaa !9
  br label %70

47:                                               ; preds = %28
  %48 = load ptr, ptr %4, align 8, !tbaa !4
  %49 = load i32, ptr %6, align 4, !tbaa !9
  %50 = sext i32 %49 to i64
  %51 = getelementptr inbounds i8, ptr %48, i64 %50
  %52 = load i8, ptr %51, align 1, !tbaa !11
  %53 = zext i8 %52 to i32
  %54 = load ptr, ptr %4, align 8, !tbaa !4
  %55 = load i32, ptr %6, align 4, !tbaa !9
  %56 = add nsw i32 %55, 1
  %57 = sext i32 %56 to i64
  %58 = getelementptr inbounds i8, ptr %54, i64 %57
  %59 = load i8, ptr %58, align 1, !tbaa !11
  %60 = zext i8 %59 to i32
  %61 = xor i32 %53, %60
  %62 = icmp eq i32 %61, 124
  br i1 %62, label %63, label %64

63:                                               ; preds = %47
  br label %70

64:                                               ; preds = %47
  br label %65

65:                                               ; preds = %64
  br label %66

66:                                               ; preds = %65, %20
  br label %67

67:                                               ; preds = %66
  %68 = load i32, ptr %6, align 4, !tbaa !9
  %69 = add nsw i32 %68, 2
  store i32 %69, ptr %6, align 4, !tbaa !9
  br label %8, !llvm.loop !12

70:                                               ; preds = %63, %44, %8
  %71 = load i32, ptr %6, align 4, !tbaa !9
  %72 = load i32, ptr %5, align 4, !tbaa !9
  %73 = icmp sge i32 %71, %72
  br i1 %73, label %74, label %75

74:                                               ; preds = %70
  store i32 -1094995529, ptr %3, align 4
  store i32 1, ptr %7, align 4
  br label %77

75:                                               ; preds = %70
  %76 = load i32, ptr %6, align 4, !tbaa !9
  store i32 %76, ptr %3, align 4
  store i32 1, ptr %7, align 4
  br label %77

77:                                               ; preds = %75, %74
  call void @llvm.lifetime.end.p0(i64 4, ptr %6) #9
  %78 = load i32, ptr %3, align 4
  ret i32 %78
}