; Function Attrs: nofree norecurse nosync nounwind memory(argmem: read) uwtable
define i32 @ff_ac3_find_syncword(ptr noundef readonly captures(none) %0, i32 noundef %1) local_unnamed_addr #0 {
  %3 = icmp sgt i32 %1, 1
  br i1 %3, label %.lr.ph, label %.loopexit

.lr.ph:                                           ; preds = %2, %19
  %indvars.iv = phi i64 [ %indvars.iv.next, %19 ], [ 1, %2 ]
  %4 = getelementptr inbounds nuw i8, ptr %0, i64 %indvars.iv
  %5 = load i8, ptr %4, align 1, !tbaa !4
  switch i8 %5, label %19 [
    i8 119, label %6
    i8 11, label %6
  ]

6:                                                ; preds = %.lr.ph, %.lr.ph
  %7 = getelementptr i8, ptr %4, i64 -1
  %8 = load i8, ptr %7, align 1, !tbaa !4
  %9 = xor i8 %8, %5
  %10 = icmp eq i8 %9, 124
  br i1 %10, label %11, label %14

11:                                               ; preds = %6
  %12 = trunc nuw nsw i64 %indvars.iv to i32
  %13 = add nsw i32 %12, -1
  br label %.loopexit

14:                                               ; preds = %6
  %15 = getelementptr inbounds nuw i8, ptr %4, i64 1
  %16 = load i8, ptr %15, align 1, !tbaa !4
  %17 = xor i8 %16, %5
  %18 = icmp eq i8 %17, 124
  br i1 %18, label %.loopexit.loopexit.split.loop.exit, label %19

19:                                               ; preds = %.lr.ph, %14
  %indvars.iv.next = add nuw nsw i64 %indvars.iv, 2
  %indvars = trunc i64 %indvars.iv.next to i32
  %20 = icmp sgt i32 %1, %indvars
  br i1 %20, label %.lr.ph, label %.loopexit, !llvm.loop !7

.loopexit.loopexit.split.loop.exit:               ; preds = %14
  %21 = trunc nuw nsw i64 %indvars.iv to i32
  br label %.loopexit

.loopexit:                                        ; preds = %19, %.loopexit.loopexit.split.loop.exit, %2, %11
  %.1 = phi i32 [ %13, %11 ], [ 1, %2 ], [ %21, %.loopexit.loopexit.split.loop.exit ], [ %indvars, %19 ]
  %.not = icmp slt i32 %.1, %1
  %.1. = select i1 %.not, i32 %.1, i32 -1094995529
  ret i32 %.1.
}